; Function Attrs: nounwind uwtable
define dso_local noundef zeroext i1 @listOpFamilyFunctions(ptr noundef %0, ptr noundef %1, i1 noundef zeroext %2) local_unnamed_addr #0 {
  %4 = alloca %struct.PQExpBufferData, align 8
  %5 = alloca i32, align 4
  %6 = alloca %struct.PQExpBufferData, align 8
  %7 = alloca %struct.printQueryOpt, align 8
  call void @llvm.lifetime.start.p0(i64 24, ptr nonnull %6) #8
  call void @llvm.lifetime.start.p0(i64 168, ptr nonnull %7) #8
  call void @llvm.memcpy.p0.p0.i64(ptr noundef nonnull align 8 dereferenceable(168) %7, ptr noundef nonnull align 8 dereferenceable(168) getelementptr inbounds nuw (i8, ptr @pset, i64 48), i64 168, i1 false)
  call void @initPQExpBuffer(ptr noundef nonnull %6) #8
  call void (ptr, ptr, ...) @printfPQExpBuffer(ptr noundef nonnull %6, ptr noundef nonnull @.str.600, ptr noundef nonnull @.str.566, ptr noundef nonnull @.str.571, ptr noundef nonnull @.str.601, ptr noundef nonnull @.str.602, ptr noundef nonnull @.str.603) #8
  %.str.605..str.604 = select i1 %2, ptr @.str.605, ptr @.str.604
  call void (ptr, ptr, ...) @appendPQExpBuffer(ptr noundef nonnull %6, ptr noundef nonnull %.str.605..str.604, ptr noundef nonnull @.str.118) #8
  call void @appendPQExpBufferStr(ptr noundef nonnull %6, ptr noundef nonnull @.str.606) #8
  %.not = icmp eq ptr %0, null
  br i1 %.not, label %12, label %8

8:                                                ; preds = %3
  call void @llvm.lifetime.start.p0(i64 24, ptr nonnull %4) #8
  call void @llvm.lifetime.start.p0(i64 4, ptr nonnull %5) #8
  call void @initPQExpBuffer(ptr noundef nonnull %4) #8
  %9 = load ptr, ptr @pset, align 8
  %10 = call zeroext i1 @processSQLNamePattern(ptr noundef %9, ptr noundef nonnull %6, ptr noundef nonnull %0, i1 noundef zeroext false, i1 noundef zeroext false, ptr noundef null, ptr noundef nonnull @.str.574, ptr noundef null, ptr noundef null, ptr noundef nonnull %4, ptr noundef nonnull %5) #8
  %11 = load i32, ptr %5, align 4
  %.not19.i = icmp slt i32 %11, 1
  br i1 %.not19.i, label %validateSQLNamePattern.exit.thread, label %validateSQLNamePattern.exit

validateSQLNamePattern.exit.thread:               ; preds = %8
  call void @termPQExpBuffer(ptr noundef nonnull %4) #8
  call void @llvm.lifetime.end.p0(i64 4, ptr nonnull %5) #8
  call void @llvm.lifetime.end.p0(i64 24, ptr nonnull %4) #8
  br label %12

validateSQLNamePattern.exit:                      ; preds = %8
  call void (i32, i32, ptr, ...) @pg_log_generic(i32 noundef 4, i32 noundef 0, ptr noundef nonnull @.str.912, ptr noundef nonnull %0) #8
  call void @termPQExpBuffer(ptr noundef nonnull %4) #8
  call void @llvm.lifetime.end.p0(i64 4, ptr nonnull %5) #8
  call void @llvm.lifetime.end.p0(i64 24, ptr nonnull %4) #8
  br label %25

12:                                               ; preds = %validateSQLNamePattern.exit.thread, %3
  %.013 = phi i1 [ false, %3 ], [ %10, %validateSQLNamePattern.exit.thread ]
  %.not11 = icmp eq ptr %1, null
  br i1 %.not11, label %15, label %13

13:                                               ; preds = %12
  %14 = call fastcc zeroext i1 @validateSQLNamePattern(ptr noundef %6, ptr noundef nonnull %1, i1 noundef zeroext %.013, i1 noundef zeroext false, ptr noundef nonnull @.str.408, ptr noundef nonnull @.str.597, ptr noundef null, ptr noundef null, ptr noundef null, i32 noundef 3)
  br i1 %14, label %15, label %25

15:                                               ; preds = %13, %12
  call void @appendPQExpBufferStr(ptr noundef nonnull %6, ptr noundef nonnull @.str.607) #8
  %16 = load ptr, ptr %6, align 8
  %17 = call ptr @PSQLexec(ptr noundef %16) #8
  call void @termPQExpBuffer(ptr noundef nonnull %6) #8
  %.not12 = icmp eq ptr %17, null
  br i1 %.not12, label %26, label %18

18:                                               ; preds = %15
  %19 = getelementptr inbounds nuw i8, ptr %7, i64 128
  store ptr @.str.608, ptr %19, align 8
  %20 = getelementptr inbounds nuw i8, ptr %7, i64 144
  store i8 1, ptr %20, align 8
  %21 = getelementptr inbounds nuw i8, ptr %7, i64 152
  store ptr @listOpFamilyFunctions.translate_columns, ptr %21, align 8
  %22 = getelementptr inbounds nuw i8, ptr %7, i64 160
  store i32 6, ptr %22, align 8
  %23 = load ptr, ptr getelementptr inbounds nuw (i8, ptr @pset, i64 16), align 8
  %24 = load ptr, ptr getelementptr inbounds nuw (i8, ptr @pset, i64 376), align 8
  call void @printQuery(ptr noundef nonnull %17, ptr noundef nonnull %7, ptr noundef %23, i1 noundef zeroext false, ptr noundef %24) #8
  call void @PQclear(ptr noundef nonnull %17) #8
  br label %26

25:                                               ; preds = %validateSQLNamePattern.exit, %13
  call void @termPQExpBuffer(ptr noundef nonnull %6) #8
  br label %26

26:                                               ; preds = %15, %25, %18
  %.0 = phi i1 [ true, %18 ], [ false, %25 ], [ false, %15 ]
  call void @llvm.lifetime.end.p0(i64 168, ptr nonnull %7) #8
  call void @llvm.lifetime.end.p0(i64 24, ptr nonnull %6) #8
  ret i1 %.0
}